TN:
SF:/home/runner/work/memorystorm/memorystorm/memorystorm/memorystorm.cpp
FN:119,162,_ZN11memorystorm18get_physical_usageEv
FN:164,197,_ZN11memorystorm17get_virtual_totalEv
FN:198,225,_ZN11memorystorm21get_virtual_availableEv
FN:226,263,_ZN11memorystorm17get_virtual_usageEv
FN:265,297,_ZN11memorystorm14human_readableB5cxx11Em
FN:299,310,_ZN11memorystorm9get_statsB5cxx11Ev
FN:312,315,_ZN11memorystorm10dump_statsEv
FN:35,50,_ZN11memorystorm19get_stack_availableEv
FN:52,87,_ZN11memorystorm18get_physical_totalEv
FN:88,118,_ZN11memorystorm22get_physical_availableEv
FNDA:8,_ZN11memorystorm18get_physical_usageEv
FNDA:8,_ZN11memorystorm17get_virtual_totalEv
FNDA:6,_ZN11memorystorm21get_virtual_availableEv
FNDA:7,_ZN11memorystorm17get_virtual_usageEv
FNDA:70,_ZN11memorystorm14human_readableB5cxx11Em
FNDA:5,_ZN11memorystorm9get_statsB5cxx11Ev
FNDA:2,_ZN11memorystorm10dump_statsEv
FNDA:6,_ZN11memorystorm19get_stack_availableEv
FNDA:11,_ZN11memorystorm18get_physical_totalEv
FNDA:6,_ZN11memorystorm22get_physical_availableEv
FNF:10
FNH:10
DA:35,6
DA:46,6
DA:47,6
DA:52,11
DA:75,11
DA:76,11
DA:77,11
DA:78,11
DA:88,6
DA:101,6
DA:102,6
DA:103,6
DA:104,6
DA:119,8
DA:136,8
DA:137,8
DA:139,184
DA:140,184
DA:141,8
DA:142,8
DA:143,96
DA:144,88
DA:146,8
DA:147,8
DA:148,8
DA:151,8
DA:152,8
DA:164,8
DA:183,8
DA:184,8
DA:185,8
DA:186,8
DA:187,8
DA:198,6
DA:211,6
DA:212,6
DA:213,6
DA:214,6
DA:215,6
DA:226,7
DA:238,7
DA:239,7
DA:241,455
DA:242,441
DA:243,7
DA:244,7
DA:245,91
DA:246,84
DA:248,7
DA:249,7
DA:252,7
DA:253,7
DA:265,70
DA:267,70
DA:268,70
DA:269,70
DA:270,70
DA:271,70
DA:272,70
DA:273,70
DA:274,5
DA:275,65
DA:276,7
DA:277,58
DA:278,6
DA:279,52
DA:280,14
DA:281,38
DA:282,8
DA:283,30
DA:284,8
DA:285,22
DA:286,17
DA:287,5
DA:288,2
DA:289,3
DA:290,1
DA:291,2
DA:292,1
DA:294,1
DA:296,140
DA:297,70
DA:299,5
DA:301,5
DA:302,5
DA:303,10
DA:304,10
DA:305,20
DA:306,10
DA:307,10
DA:308,15
DA:309,10
DA:310,5
DA:312,2
DA:314,2
DA:315,2
LF:96
LH:96
end_of_record
